; Function Attrs: nounwind sspstrong uwtable
define internal void @rv64_thead_c906_cpu_init(ptr noundef %obj) #3 {
entry:
  %call.i = tail call ptr @object_dynamic_cast_assert(ptr noundef %obj, ptr noundef nonnull @.str.250, ptr noundef nonnull @.str.282, i32 noundef 46, ptr noundef nonnull @__func__.RISCV_CPU) #14
  %call.i17 = tail call ptr @object_dynamic_cast_assert(ptr noundef %obj, ptr noundef nonnull @.str.250, ptr noundef nonnull @.str.282, i32 noundef 46, ptr noundef nonnull @__func__.RISCV_CPU) #14
  %misa_mxl.i = getelementptr inbounds nuw i8, ptr %call.i, i64 15184
  store i32 2, ptr %misa_mxl.i, align 16
  %misa_mxl_max.i = getelementptr inbounds nuw i8, ptr %call.i, i64 15188
  store i32 2, ptr %misa_mxl_max.i, align 4
  %misa_ext.i = getelementptr inbounds nuw i8, ptr %call.i, i64 15192
  store i32 1310788, ptr %misa_ext.i, align 8
  %misa_ext_mask.i = getelementptr inbounds nuw i8, ptr %call.i, i64 15196
  store i32 1310788, ptr %misa_ext_mask.i, align 4
  %priv_ver = getelementptr inbounds nuw i8, ptr %call.i, i64 15160
  store i64 1, ptr %priv_ver, align 8
  %ext_zfa = getelementptr inbounds nuw i8, ptr %call.i17, i64 15353
  store i8 1, ptr %ext_zfa, align 1
  %ext_zfh = getelementptr inbounds nuw i8, ptr %call.i17, i64 15355
  store i8 1, ptr %ext_zfh, align 1
  %mmu = getelementptr inbounds nuw i8, ptr %call.i17, i64 15472
  store i8 1, ptr %mmu, align 16
  %ext_xtheadba = getelementptr inbounds nuw i8, ptr %call.i17, i64 15416
  %ext_xtheadmac = getelementptr inbounds nuw i8, ptr %call.i17, i64 15423
  %mvendorid = getelementptr inbounds nuw i8, ptr %call.i17, i64 15392
  tail call void @llvm.memset.p0.i64(ptr noundef nonnull align 8 dereferenceable(6) %ext_xtheadba, i8 1, i64 6, i1 false)
  store i32 16843009, ptr %ext_xtheadmac, align 1
  store i32 1463, ptr %mvendorid, align 16
  %pmp = getelementptr inbounds nuw i8, ptr %call.i17, i64 15473
  store i8 1, ptr %pmp, align 1
  ret void
}